target datalayout = "e-m:e-p270:32:32-p271:32:32-p272:64:64-i64:64-i128:128-f80:128-n8:16:32:64-S128"
target triple = "x86_64-pc-linux-gnu"

%struct.jv = type { i8, i8, i16, i32, %union.anon }
%union.anon = type { ptr }

@.str.10 = private unnamed_addr constant [6 x i8] c"start\00", align 1
@.str.11 = private unnamed_addr constant [4 x i8] c"end\00", align 1
@.str.12 = private unnamed_addr constant [38 x i8] c"Only arrays and strings can be sliced\00", align 1
@.str.13 = private unnamed_addr constant [44 x i8] c"Array/string slice indices must be integers\00", align 1

; Function Attrs: nounwind uwtable
define internal { i64, ptr } @parse_slice(i64 %0, ptr %1, i64 %2, ptr %3, ptr noundef %4, ptr noundef %5) #0 {
  %7 = alloca %struct.jv, align 8
  %8 = alloca %struct.jv, align 8
  %9 = alloca %struct.jv, align 8
  %10 = alloca ptr, align 8
  %11 = alloca ptr, align 8
  %12 = alloca %struct.jv, align 8
  %13 = alloca %struct.jv, align 8
  %14 = alloca %struct.jv, align 8
  %15 = alloca %struct.jv, align 8
  %16 = alloca %struct.jv, align 8
  %17 = alloca %struct.jv, align 8
  %18 = alloca i32, align 4
  %19 = alloca %struct.jv, align 8
  %20 = alloca i32, align 4
  %21 = alloca %struct.jv, align 8
  %22 = alloca %struct.jv, align 8
  %23 = alloca double, align 8
  %24 = alloca double, align 8
  %25 = alloca i32, align 4
  %26 = alloca i32, align 4
  %27 = getelementptr inbounds nuw { i64, ptr }, ptr %8, i32 0, i32 0
  store i64 %0, ptr %27, align 8
  %28 = getelementptr inbounds nuw { i64, ptr }, ptr %8, i32 0, i32 1
  store ptr %1, ptr %28, align 8
  %29 = getelementptr inbounds nuw { i64, ptr }, ptr %9, i32 0, i32 0
  store i64 %2, ptr %29, align 8
  %30 = getelementptr inbounds nuw { i64, ptr }, ptr %9, i32 0, i32 1
  store ptr %3, ptr %30, align 8
  store ptr %4, ptr %10, align 8, !tbaa !14
  store ptr %5, ptr %11, align 8, !tbaa !14
  call void @llvm.lifetime.start.p0(i64 16, ptr %12) #6
  %31 = getelementptr inbounds nuw { i64, ptr }, ptr %9, i32 0, i32 0
  %32 = load i64, ptr %31, align 8
  %33 = getelementptr inbounds nuw { i64, ptr }, ptr %9, i32 0, i32 1
  %34 = load ptr, ptr %33, align 8
  %35 = call { i64, ptr } @jv_copy(i64 %32, ptr %34)
  %36 = getelementptr inbounds nuw { i64, ptr }, ptr %13, i32 0, i32 0
  %37 = extractvalue { i64, ptr } %35, 0
  store i64 %37, ptr %36, align 8
  %38 = getelementptr inbounds nuw { i64, ptr }, ptr %13, i32 0, i32 1
  %39 = extractvalue { i64, ptr } %35, 1
  store ptr %39, ptr %38, align 8
  %40 = call { i64, ptr } @jv_string(ptr noundef @.str.10)
  %41 = getelementptr inbounds nuw { i64, ptr }, ptr %14, i32 0, i32 0
  %42 = extractvalue { i64, ptr } %40, 0
  store i64 %42, ptr %41, align 8
  %43 = getelementptr inbounds nuw { i64, ptr }, ptr %14, i32 0, i32 1
  %44 = extractvalue { i64, ptr } %40, 1
  store ptr %44, ptr %43, align 8
  %45 = getelementptr inbounds nuw { i64, ptr }, ptr %13, i32 0, i32 0
  %46 = load i64, ptr %45, align 8
  %47 = getelementptr inbounds nuw { i64, ptr }, ptr %13, i32 0, i32 1
  %48 = load ptr, ptr %47, align 8
  %49 = getelementptr inbounds nuw { i64, ptr }, ptr %14, i32 0, i32 0
  %50 = load i64, ptr %49, align 8
  %51 = getelementptr inbounds nuw { i64, ptr }, ptr %14, i32 0, i32 1
  %52 = load ptr, ptr %51, align 8
  %53 = call { i64, ptr } @jv_object_get(i64 %46, ptr %48, i64 %50, ptr %52)
  %54 = getelementptr inbounds nuw { i64, ptr }, ptr %12, i32 0, i32 0
  %55 = extractvalue { i64, ptr } %53, 0
  store i64 %55, ptr %54, align 8
  %56 = getelementptr inbounds nuw { i64, ptr }, ptr %12, i32 0, i32 1
  %57 = extractvalue { i64, ptr } %53, 1
  store ptr %57, ptr %56, align 8
  call void @llvm.lifetime.start.p0(i64 16, ptr %15) #6
  %58 = call { i64, ptr } @jv_string(ptr noundef @.str.11)
  %59 = getelementptr inbounds nuw { i64, ptr }, ptr %16, i32 0, i32 0
  %60 = extractvalue { i64, ptr } %58, 0
  store i64 %60, ptr %59, align 8
  %61 = getelementptr inbounds nuw { i64, ptr }, ptr %16, i32 0, i32 1
  %62 = extractvalue { i64, ptr } %58, 1
  store ptr %62, ptr %61, align 8
  %63 = getelementptr inbounds nuw { i64, ptr }, ptr %9, i32 0, i32 0
  %64 = load i64, ptr %63, align 8
  %65 = getelementptr inbounds nuw { i64, ptr }, ptr %9, i32 0, i32 1
  %66 = load ptr, ptr %65, align 8
  %67 = getelementptr inbounds nuw { i64, ptr }, ptr %16, i32 0, i32 0
  %68 = load i64, ptr %67, align 8
  %69 = getelementptr inbounds nuw { i64, ptr }, ptr %16, i32 0, i32 1
  %70 = load ptr, ptr %69, align 8
  %71 = call { i64, ptr } @jv_object_get(i64 %64, ptr %66, i64 %68, ptr %70)
  %72 = getelementptr inbounds nuw { i64, ptr }, ptr %15, i32 0, i32 0
  %73 = extractvalue { i64, ptr } %71, 0
  store i64 %73, ptr %72, align 8
  %74 = getelementptr inbounds nuw { i64, ptr }, ptr %15, i32 0, i32 1
  %75 = extractvalue { i64, ptr } %71, 1
  store ptr %75, ptr %74, align 8
  %76 = getelementptr inbounds nuw { i64, ptr }, ptr %12, i32 0, i32 0
  %77 = load i64, ptr %76, align 8
  %78 = getelementptr inbounds nuw { i64, ptr }, ptr %12, i32 0, i32 1
  %79 = load ptr, ptr %78, align 8
  %80 = call i32 @jv_get_kind(i64 %77, ptr %79)
  %81 = icmp eq i32 %80, 1
  br i1 %81, label %82, label %92

82:                                               ; preds = %6
  %83 = getelementptr inbounds nuw { i64, ptr }, ptr %12, i32 0, i32 0
  %84 = load i64, ptr %83, align 8
  %85 = getelementptr inbounds nuw { i64, ptr }, ptr %12, i32 0, i32 1
  %86 = load ptr, ptr %85, align 8
  call void @jv_free(i64 %84, ptr %86)
  call void @llvm.lifetime.start.p0(i64 16, ptr %17) #6
  %87 = call { i64, ptr } @jv_number(double noundef 0.000000e+00)
  %88 = getelementptr inbounds nuw { i64, ptr }, ptr %17, i32 0, i32 0
  %89 = extractvalue { i64, ptr } %87, 0
  store i64 %89, ptr %88, align 8
  %90 = getelementptr inbounds nuw { i64, ptr }, ptr %17, i32 0, i32 1
  %91 = extractvalue { i64, ptr } %87, 1
  store ptr %91, ptr %90, align 8
  call void @llvm.memcpy.p0.p0.i64(ptr align 8 %12, ptr align 8 %17, i64 16, i1 false), !tbaa.struct !4
  call void @llvm.lifetime.end.p0(i64 16, ptr %17) #6
  br label %92

92:                                               ; preds = %82, %6
  call void @llvm.lifetime.start.p0(i64 4, ptr %18) #6
  %93 = getelementptr inbounds nuw { i64, ptr }, ptr %8, i32 0, i32 0
  %94 = load i64, ptr %93, align 8
  %95 = getelementptr inbounds nuw { i64, ptr }, ptr %8, i32 0, i32 1
  %96 = load ptr, ptr %95, align 8
  %97 = call i32 @jv_get_kind(i64 %94, ptr %96)
  %98 = icmp eq i32 %97, 6
  br i1 %98, label %99, label %105

99:                                               ; preds = %92
  %100 = getelementptr inbounds nuw { i64, ptr }, ptr %8, i32 0, i32 0
  %101 = load i64, ptr %100, align 8
  %102 = getelementptr inbounds nuw { i64, ptr }, ptr %8, i32 0, i32 1
  %103 = load ptr, ptr %102, align 8
  %104 = call i32 @jv_array_length(i64 %101, ptr %103)
  store i32 %104, ptr %18, align 4, !tbaa !10
  br label %146

105:                                              ; preds = %92
  %106 = getelementptr inbounds nuw { i64, ptr }, ptr %8, i32 0, i32 0
  %107 = load i64, ptr %106, align 8
  %108 = getelementptr inbounds nuw { i64, ptr }, ptr %8, i32 0, i32 1
  %109 = load ptr, ptr %108, align 8
  %110 = call i32 @jv_get_kind(i64 %107, ptr %109)
  %111 = icmp eq i32 %110, 5
  br i1 %111, label %112, label %118

112:                                              ; preds = %105
  %113 = getelementptr inbounds nuw { i64, ptr }, ptr %8, i32 0, i32 0
  %114 = load i64, ptr %113, align 8
  %115 = getelementptr inbounds nuw { i64, ptr }, ptr %8, i32 0, i32 1
  %116 = load ptr, ptr %115, align 8
  %117 = call i32 @jv_string_length_codepoints(i64 %114, ptr %116)
  store i32 %117, ptr %18, align 4, !tbaa !10
  br label %145

118:                                              ; preds = %105
  %119 = getelementptr inbounds nuw { i64, ptr }, ptr %8, i32 0, i32 0
  %120 = load i64, ptr %119, align 8
  %121 = getelementptr inbounds nuw { i64, ptr }, ptr %8, i32 0, i32 1
  %122 = load ptr, ptr %121, align 8
  call void @jv_free(i64 %120, ptr %122)
  %123 = getelementptr inbounds nuw { i64, ptr }, ptr %12, i32 0, i32 0
  %124 = load i64, ptr %123, align 8
  %125 = getelementptr inbounds nuw { i64, ptr }, ptr %12, i32 0, i32 1
  %126 = load ptr, ptr %125, align 8
  call void @jv_free(i64 %124, ptr %126)
  %127 = getelementptr inbounds nuw { i64, ptr }, ptr %15, i32 0, i32 0
  %128 = load i64, ptr %127, align 8
  %129 = getelementptr inbounds nuw { i64, ptr }, ptr %15, i32 0, i32 1
  %130 = load ptr, ptr %129, align 8
  call void @jv_free(i64 %128, ptr %130)
  %131 = call { i64, ptr } @jv_string(ptr noundef @.str.12)
  %132 = getelementptr inbounds nuw { i64, ptr }, ptr %19, i32 0, i32 0
  %133 = extractvalue { i64, ptr } %131, 0
  store i64 %133, ptr %132, align 8
  %134 = getelementptr inbounds nuw { i64, ptr }, ptr %19, i32 0, i32 1
  %135 = extractvalue { i64, ptr } %131, 1
  store ptr %135, ptr %134, align 8
  %136 = getelementptr inbounds nuw { i64, ptr }, ptr %19, i32 0, i32 0
  %137 = load i64, ptr %136, align 8
  %138 = getelementptr inbounds nuw { i64, ptr }, ptr %19, i32 0, i32 1
  %139 = load ptr, ptr %138, align 8
  %140 = call { i64, ptr } @jv_invalid_with_msg(i64 %137, ptr %139)
  %141 = getelementptr inbounds nuw { i64, ptr }, ptr %7, i32 0, i32 0
  %142 = extractvalue { i64, ptr } %140, 0
  store i64 %142, ptr %141, align 8
  %143 = getelementptr inbounds nuw { i64, ptr }, ptr %7, i32 0, i32 1
  %144 = extractvalue { i64, ptr } %140, 1
  store ptr %144, ptr %143, align 8
  store i32 1, ptr %20, align 4
  br label %314

145:                                              ; preds = %112
  br label %146

146:                                              ; preds = %145, %99
  %147 = getelementptr inbounds nuw { i64, ptr }, ptr %15, i32 0, i32 0
  %148 = load i64, ptr %147, align 8
  %149 = getelementptr inbounds nuw { i64, ptr }, ptr %15, i32 0, i32 1
  %150 = load ptr, ptr %149, align 8
  %151 = call i32 @jv_get_kind(i64 %148, ptr %150)
  %152 = icmp eq i32 %151, 1
  br i1 %152, label %153, label %165

153:                                              ; preds = %146
  %154 = getelementptr inbounds nuw { i64, ptr }, ptr %15, i32 0, i32 0
  %155 = load i64, ptr %154, align 8
  %156 = getelementptr inbounds nuw { i64, ptr }, ptr %15, i32 0, i32 1
  %157 = load ptr, ptr %156, align 8
  call void @jv_free(i64 %155, ptr %157)
  call void @llvm.lifetime.start.p0(i64 16, ptr %21) #6
  %158 = load i32, ptr %18, align 4, !tbaa !10
  %159 = sitofp i32 %158 to double
  %160 = call { i64, ptr } @jv_number(double noundef %159)
  %161 = getelementptr inbounds nuw { i64, ptr }, ptr %21, i32 0, i32 0
  %162 = extractvalue { i64, ptr } %160, 0
  store i64 %162, ptr %161, align 8
  %163 = getelementptr inbounds nuw { i64, ptr }, ptr %21, i32 0, i32 1
  %164 = extractvalue { i64, ptr } %160, 1
  store ptr %164, ptr %163, align 8
  call void @llvm.memcpy.p0.p0.i64(ptr align 8 %15, ptr align 8 %21, i64 16, i1 false), !tbaa.struct !4
  call void @llvm.lifetime.end.p0(i64 16, ptr %21) #6
  br label %165

165:                                              ; preds = %153, %146
  %166 = getelementptr inbounds nuw { i64, ptr }, ptr %12, i32 0, i32 0
  %167 = load i64, ptr %166, align 8
  %168 = getelementptr inbounds nuw { i64, ptr }, ptr %12, i32 0, i32 1
  %169 = load ptr, ptr %168, align 8
  %170 = call i32 @jv_get_kind(i64 %167, ptr %169)
  %171 = icmp ne i32 %170, 4
  br i1 %171, label %179, label %172

172:                                              ; preds = %165
  %173 = getelementptr inbounds nuw { i64, ptr }, ptr %15, i32 0, i32 0
  %174 = load i64, ptr %173, align 8
  %175 = getelementptr inbounds nuw { i64, ptr }, ptr %15, i32 0, i32 1
  %176 = load ptr, ptr %175, align 8
  %177 = call i32 @jv_get_kind(i64 %174, ptr %176)
  %178 = icmp ne i32 %177, 4
  br i1 %178, label %179, label %202

179:                                              ; preds = %172, %165
  %180 = getelementptr inbounds nuw { i64, ptr }, ptr %12, i32 0, i32 0
  %181 = load i64, ptr %180, align 8
  %182 = getelementptr inbounds nuw { i64, ptr }, ptr %12, i32 0, i32 1
  %183 = load ptr, ptr %182, align 8
  call void @jv_free(i64 %181, ptr %183)
  %184 = getelementptr inbounds nuw { i64, ptr }, ptr %15, i32 0, i32 0
  %185 = load i64, ptr %184, align 8
  %186 = getelementptr inbounds nuw { i64, ptr }, ptr %15, i32 0, i32 1
  %187 = load ptr, ptr %186, align 8
  call void @jv_free(i64 %185, ptr %187)
  %188 = call { i64, ptr } @jv_string(ptr noundef @.str.13)
  %189 = getelementptr inbounds nuw { i64, ptr }, ptr %22, i32 0, i32 0
  %190 = extractvalue { i64, ptr } %188, 0
  store i64 %190, ptr %189, align 8
  %191 = getelementptr inbounds nuw { i64, ptr }, ptr %22, i32 0, i32 1
  %192 = extractvalue { i64, ptr } %188, 1
  store ptr %192, ptr %191, align 8
  %193 = getelementptr inbounds nuw { i64, ptr }, ptr %22, i32 0, i32 0
  %194 = load i64, ptr %193, align 8
  %195 = getelementptr inbounds nuw { i64, ptr }, ptr %22, i32 0, i32 1
  %196 = load ptr, ptr %195, align 8
  %197 = call { i64, ptr } @jv_invalid_with_msg(i64 %194, ptr %196)
  %198 = getelementptr inbounds nuw { i64, ptr }, ptr %7, i32 0, i32 0
  %199 = extractvalue { i64, ptr } %197, 0
  store i64 %199, ptr %198, align 8
  %200 = getelementptr inbounds nuw { i64, ptr }, ptr %7, i32 0, i32 1
  %201 = extractvalue { i64, ptr } %197, 1
  store ptr %201, ptr %200, align 8
  store i32 1, ptr %20, align 4
  br label %314

202:                                              ; preds = %172
  call void @llvm.lifetime.start.p0(i64 8, ptr %23) #6
  %203 = getelementptr inbounds nuw { i64, ptr }, ptr %12, i32 0, i32 0
  %204 = load i64, ptr %203, align 8
  %205 = getelementptr inbounds nuw { i64, ptr }, ptr %12, i32 0, i32 1
  %206 = load ptr, ptr %205, align 8
  %207 = call double @jv_number_value(i64 %204, ptr %206)
  store double %207, ptr %23, align 8, !tbaa !12
  call void @llvm.lifetime.start.p0(i64 8, ptr %24) #6
  %208 = getelementptr inbounds nuw { i64, ptr }, ptr %15, i32 0, i32 0
  %209 = load i64, ptr %208, align 8
  %210 = getelementptr inbounds nuw { i64, ptr }, ptr %15, i32 0, i32 1
  %211 = load ptr, ptr %210, align 8
  %212 = call double @jv_number_value(i64 %209, ptr %211)
  store double %212, ptr %24, align 8, !tbaa !12
  call void @llvm.lifetime.start.p0(i64 4, ptr %25) #6
  call void @llvm.lifetime.start.p0(i64 4, ptr %26) #6
  %213 = getelementptr inbounds nuw { i64, ptr }, ptr %12, i32 0, i32 0
  %214 = load i64, ptr %213, align 8
  %215 = getelementptr inbounds nuw { i64, ptr }, ptr %12, i32 0, i32 1
  %216 = load ptr, ptr %215, align 8
  call void @jv_free(i64 %214, ptr %216)
  %217 = getelementptr inbounds nuw { i64, ptr }, ptr %15, i32 0, i32 0
  %218 = load i64, ptr %217, align 8
  %219 = getelementptr inbounds nuw { i64, ptr }, ptr %15, i32 0, i32 1
  %220 = load ptr, ptr %219, align 8
  call void @jv_free(i64 %218, ptr %220)
  %221 = load double, ptr %23, align 8, !tbaa !12
  %222 = call i1 @llvm.is.fpclass.f64(double %221, i32 3)
  br i1 %222, label %223, label %224

223:                                              ; preds = %202
  store double 0.000000e+00, ptr %23, align 8, !tbaa !12
  br label %224

224:                                              ; preds = %223, %202
  %225 = load double, ptr %23, align 8, !tbaa !12
  %226 = fcmp olt double %225, 0.000000e+00
  br i1 %226, label %227, label %232

227:                                              ; preds = %224
  %228 = load i32, ptr %18, align 4, !tbaa !10
  %229 = sitofp i32 %228 to double
  %230 = load double, ptr %23, align 8, !tbaa !12
  %231 = fadd double %230, %229
  store double %231, ptr %23, align 8, !tbaa !12
  br label %232

232:                                              ; preds = %227, %224
  %233 = load double, ptr %23, align 8, !tbaa !12
  %234 = fcmp olt double %233, 0.000000e+00
  br i1 %234, label %235, label %236

235:                                              ; preds = %232
  store double 0.000000e+00, ptr %23, align 8, !tbaa !12
  br label %236

236:                                              ; preds = %235, %232
  %237 = load double, ptr %23, align 8, !tbaa !12
  %238 = load i32, ptr %18, align 4, !tbaa !10
  %239 = sitofp i32 %238 to double
  %240 = fcmp ogt double %237, %239
  br i1 %240, label %241, label %244

241:                                              ; preds = %236
  %242 = load i32, ptr %18, align 4, !tbaa !10
  %243 = sitofp i32 %242 to double
  store double %243, ptr %23, align 8, !tbaa !12
  br label %244

244:                                              ; preds = %241, %236
  %245 = load double, ptr %23, align 8, !tbaa !12
  %246 = fcmp ogt double %245, 0x41DFFFFFFFC00000
  br i1 %246, label %247, label %248

247:                                              ; preds = %244
  br label %251

248:                                              ; preds = %244
  %249 = load double, ptr %23, align 8, !tbaa !12
  %250 = fptosi double %249 to i32
  br label %251

251:                                              ; preds = %248, %247
  %252 = phi i32 [ 2147483647, %247 ], [ %250, %248 ]
  store i32 %252, ptr %25, align 4, !tbaa !10
  %253 = load double, ptr %24, align 8, !tbaa !12
  %254 = call i1 @llvm.is.fpclass.f64(double %253, i32 3)
  br i1 %254, label %255, label %258

255:                                              ; preds = %251
  %256 = load i32, ptr %18, align 4, !tbaa !10
  %257 = sitofp i32 %256 to double
  store double %257, ptr %24, align 8, !tbaa !12
  br label %258

258:                                              ; preds = %255, %251
  %259 = load double, ptr %24, align 8, !tbaa !12
  %260 = fcmp olt double %259, 0.000000e+00
  br i1 %260, label %261, label %266

261:                                              ; preds = %258
  %262 = load i32, ptr %18, align 4, !tbaa !10
  %263 = sitofp i32 %262 to double
  %264 = load double, ptr %24, align 8, !tbaa !12
  %265 = fadd double %264, %263
  store double %265, ptr %24, align 8, !tbaa !12
  br label %266

266:                                              ; preds = %261, %258
  %267 = load double, ptr %24, align 8, !tbaa !12
  %268 = fcmp olt double %267, 0.000000e+00
  br i1 %268, label %269, label %272

269:                                              ; preds = %266
  %270 = load i32, ptr %25, align 4, !tbaa !10
  %271 = sitofp i32 %270 to double
  store double %271, ptr %24, align 8, !tbaa !12
  br label %272

272:                                              ; preds = %269, %266
  %273 = load double, ptr %24, align 8, !tbaa !12
  %274 = fcmp ogt double %273, 0x41DFFFFFFFC00000
  br i1 %274, label %275, label %276

275:                                              ; preds = %272
  br label %279

276:                                              ; preds = %272
  %277 = load double, ptr %24, align 8, !tbaa !12
  %278 = fptosi double %277 to i32
  br label %279

279:                                              ; preds = %276, %275
  %280 = phi i32 [ 2147483647, %275 ], [ %278, %276 ]
  store i32 %280, ptr %26, align 4, !tbaa !10
  %281 = load i32, ptr %26, align 4, !tbaa !10
  %282 = load i32, ptr %18, align 4, !tbaa !10
  %283 = icmp sgt i32 %281, %282
  br i1 %283, label %284, label %286

284:                                              ; preds = %279
  %285 = load i32, ptr %18, align 4, !tbaa !10
  store i32 %285, ptr %26, align 4, !tbaa !10
  br label %286

286:                                              ; preds = %284, %279
  %287 = load i32, ptr %26, align 4, !tbaa !10
  %288 = load i32, ptr %18, align 4, !tbaa !10
  %289 = icmp slt i32 %287, %288
  br i1 %289, label %290, label %298

290:                                              ; preds = %286
  %291 = load i32, ptr %26, align 4, !tbaa !10
  %292 = sitofp i32 %291 to double
  %293 = load double, ptr %24, align 8, !tbaa !12
  %294 = fcmp olt double %292, %293
  %295 = select i1 %294, i32 1, i32 0
  %296 = load i32, ptr %26, align 4, !tbaa !10
  %297 = add nsw i32 %296, %295
  store i32 %297, ptr %26, align 4, !tbaa !10
  br label %298

298:                                              ; preds = %290, %286
  %299 = load i32, ptr %26, align 4, !tbaa !10
  %300 = load i32, ptr %25, align 4, !tbaa !10
  %301 = icmp slt i32 %299, %300
  br i1 %301, label %302, label %304

302:                                              ; preds = %298
  %303 = load i32, ptr %25, align 4, !tbaa !10
  store i32 %303, ptr %26, align 4, !tbaa !10
  br label %304

304:                                              ; preds = %302, %298
  %305 = load i32, ptr %25, align 4, !tbaa !10
  %306 = load ptr, ptr %10, align 8, !tbaa !14
  store i32 %305, ptr %306, align 4, !tbaa !10
  %307 = load i32, ptr %26, align 4, !tbaa !10
  %308 = load ptr, ptr %11, align 8, !tbaa !14
  store i32 %307, ptr %308, align 4, !tbaa !10
  %309 = call { i64, ptr } @jv_true()
  %310 = getelementptr inbounds nuw { i64, ptr }, ptr %7, i32 0, i32 0
  %311 = extractvalue { i64, ptr } %309, 0
  store i64 %311, ptr %310, align 8
  %312 = getelementptr inbounds nuw { i64, ptr }, ptr %7, i32 0, i32 1
  %313 = extractvalue { i64, ptr } %309, 1
  store ptr %313, ptr %312, align 8
  store i32 1, ptr %20, align 4
  call void @llvm.lifetime.end.p0(i64 4, ptr %26) #6
  call void @llvm.lifetime.end.p0(i64 4, ptr %25) #6
  call void @llvm.lifetime.end.p0(i64 8, ptr %24) #6
  call void @llvm.lifetime.end.p0(i64 8, ptr %23) #6
  br label %314

314:                                              ; preds = %304, %179, %118
  call void @llvm.lifetime.end.p0(i64 4, ptr %18) #6
  call void @llvm.lifetime.end.p0(i64 16, ptr %15) #6
  call void @llvm.lifetime.end.p0(i64 16, ptr %12) #6
  %315 = load { i64, ptr }, ptr %7, align 8
  ret { i64, ptr } %315
}