; Function Attrs: nounwind uwtable
define internal fastcc { i64, ptr } @parse_slice(i64 %0, ptr %1, i64 %2, ptr %3, ptr noundef nonnull writeonly captures(none) %4, ptr noundef nonnull writeonly captures(none) %5) unnamed_addr #0 {
  %7 = tail call { i64, ptr } @jv_copy(i64 %2, ptr %3) #6
  %8 = extractvalue { i64, ptr } %7, 0
  %9 = extractvalue { i64, ptr } %7, 1
  %10 = tail call { i64, ptr } @jv_string(ptr noundef nonnull @.str.10) #6
  %11 = extractvalue { i64, ptr } %10, 0
  %12 = extractvalue { i64, ptr } %10, 1
  %13 = tail call { i64, ptr } @jv_object_get(i64 %8, ptr %9, i64 %11, ptr %12) #6
  %14 = extractvalue { i64, ptr } %13, 0
  %15 = extractvalue { i64, ptr } %13, 1
  %16 = tail call { i64, ptr } @jv_string(ptr noundef nonnull @.str.11) #6
  %17 = extractvalue { i64, ptr } %16, 0
  %18 = extractvalue { i64, ptr } %16, 1
  %19 = tail call { i64, ptr } @jv_object_get(i64 %2, ptr %3, i64 %17, ptr %18) #6
  %20 = extractvalue { i64, ptr } %19, 0
  %21 = extractvalue { i64, ptr } %19, 1
  %22 = tail call i32 @jv_get_kind(i64 %14, ptr %15) #6
  %23 = icmp eq i32 %22, 1
  br i1 %23, label %24, label %28

24:                                               ; preds = %6
  tail call void @jv_free(i64 %14, ptr %15) #6
  %25 = tail call { i64, ptr } @jv_number(double noundef 0.000000e+00) #6
  %26 = extractvalue { i64, ptr } %25, 0
  %27 = extractvalue { i64, ptr } %25, 1
  br label %28

28:                                               ; preds = %24, %6
  %.sroa.056.0 = phi i64 [ %26, %24 ], [ %14, %6 ]
  %.sroa.1163.0 = phi ptr [ %27, %24 ], [ %15, %6 ]
  %29 = tail call i32 @jv_get_kind(i64 %0, ptr %1) #6
  %30 = icmp eq i32 %29, 6
  br i1 %30, label %31, label %33

31:                                               ; preds = %28
  %32 = tail call i32 @jv_array_length(i64 %0, ptr %1) #6
  br label %43

33:                                               ; preds = %28
  %34 = tail call i32 @jv_get_kind(i64 %0, ptr %1) #6
  %35 = icmp eq i32 %34, 5
  br i1 %35, label %36, label %38

36:                                               ; preds = %33
  %37 = tail call i32 @jv_string_length_codepoints(i64 %0, ptr %1) #6
  br label %43

38:                                               ; preds = %33
  tail call void @jv_free(i64 %0, ptr %1) #6
  tail call void @jv_free(i64 %.sroa.056.0, ptr %.sroa.1163.0) #6
  tail call void @jv_free(i64 %20, ptr %21) #6
  %39 = tail call { i64, ptr } @jv_string(ptr noundef nonnull @.str.12) #6
  %40 = extractvalue { i64, ptr } %39, 0
  %41 = extractvalue { i64, ptr } %39, 1
  %42 = tail call { i64, ptr } @jv_invalid_with_msg(i64 %40, ptr %41) #6
  br label %82

43:                                               ; preds = %36, %31
  %.092 = phi i32 [ %32, %31 ], [ %37, %36 ]
  %44 = tail call i32 @jv_get_kind(i64 %20, ptr %21) #6
  %45 = icmp eq i32 %44, 1
  br i1 %45, label %46, label %51

46:                                               ; preds = %43
  tail call void @jv_free(i64 %20, ptr %21) #6
  %47 = sitofp i32 %.092 to double
  %48 = tail call { i64, ptr } @jv_number(double noundef %47) #6
  %49 = extractvalue { i64, ptr } %48, 0
  %50 = extractvalue { i64, ptr } %48, 1
  br label %51

51:                                               ; preds = %46, %43
  %.sroa.039.0 = phi i64 [ %49, %46 ], [ %20, %43 ]
  %.sroa.11.0 = phi ptr [ %50, %46 ], [ %21, %43 ]
  %52 = tail call i32 @jv_get_kind(i64 %.sroa.056.0, ptr %.sroa.1163.0) #6
  %.not = icmp eq i32 %52, 4
  br i1 %.not, label %53, label %55

53:                                               ; preds = %51
  %54 = tail call i32 @jv_get_kind(i64 %.sroa.039.0, ptr %.sroa.11.0) #6
  %.not96 = icmp eq i32 %54, 4
  br i1 %.not96, label %60, label %55

55:                                               ; preds = %53, %51
  tail call void @jv_free(i64 %.sroa.056.0, ptr %.sroa.1163.0) #6
  tail call void @jv_free(i64 %.sroa.039.0, ptr %.sroa.11.0) #6
  %56 = tail call { i64, ptr } @jv_string(ptr noundef nonnull @.str.13) #6
  %57 = extractvalue { i64, ptr } %56, 0
  %58 = extractvalue { i64, ptr } %56, 1
  %59 = tail call { i64, ptr } @jv_invalid_with_msg(i64 %57, ptr %58) #6
  br label %82

60:                                               ; preds = %53
  %61 = tail call double @jv_number_value(i64 %.sroa.056.0, ptr %.sroa.1163.0) #6
  %62 = tail call double @jv_number_value(i64 %.sroa.039.0, ptr %.sroa.11.0) #6
  tail call void @jv_free(i64 %.sroa.056.0, ptr %.sroa.1163.0) #6
  tail call void @jv_free(i64 %.sroa.039.0, ptr %.sroa.11.0) #6
  %.inv = fcmp ord double %61, 0.000000e+00
  %spec.store.select = select i1 %.inv, double %61, double 0.000000e+00
  %63 = fcmp olt double %spec.store.select, 0.000000e+00
  %64 = sitofp i32 %.092 to double
  %65 = select i1 %63, double %64, double -0.000000e+00
  %.089 = fadd double %spec.store.select, %65
  %66 = fcmp olt double %.089, 0.000000e+00
  %.190 = select i1 %66, double 0.000000e+00, double %.089
  %67 = fcmp ogt double %.190, %64
  %.291 = select i1 %67, double %64, double %.190
  %.inv97 = fcmp oge double %.291, 0x41DFFFFFFFC00000
  %68 = select i1 %.inv97, double 0x41DFFFFFFFC00000, double %.291
  %69 = fptosi double %68 to i32
  %70 = fcmp uno double %62, 0.000000e+00
  %.086 = select i1 %70, double %64, double %62
  %71 = fcmp olt double %.086, 0.000000e+00
  %72 = select i1 %71, double %64, double -0.000000e+00
  %.187 = fadd double %.086, %72
  %73 = fcmp olt double %.187, 0.000000e+00
  %74 = sitofp i32 %69 to double
  %.288 = select i1 %73, double %74, double %.187
  %.inv98 = fcmp oge double %.288, 0x41DFFFFFFFC00000
  %75 = select i1 %.inv98, double 0x41DFFFFFFFC00000, double %.288
  %76 = fptosi double %75 to i32
  %.0 = tail call i32 @llvm.smin.i32(i32 %.092, i32 %76)
  %77 = icmp sgt i32 %.092, %76
  %78 = sitofp i32 %.0 to double
  %79 = fcmp ogt double %.288, %78
  %narrow = select i1 %77, i1 %79, i1 false
  %80 = zext i1 %narrow to i32
  %.1 = add nsw i32 %.0, %80
  %.2 = tail call i32 @llvm.smax.i32(i32 %.1, i32 %69)
  store i32 %69, ptr %4, align 4, !tbaa !4
  store i32 %.2, ptr %5, align 4, !tbaa !4
  %81 = tail call { i64, ptr } @jv_true() #6
  br label %82

82:                                               ; preds = %60, %55, %38
  %.pn = phi { i64, ptr } [ %59, %55 ], [ %81, %60 ], [ %42, %38 ]
  ret { i64, ptr } %.pn
}